ctraits.traits
__newobj__
p0
(cquaducom.devproc.tensile_test.dog_bone.exp_tt_db
ExpTTDB
p1
tp2
Rp3
(dp4
S'__traits_version__'
p5
S'3.2.0'
p6
sS'data_file'
p7
V/home/alexander/simdb/exdata/tensile_tests/TT-3a-ibac/TTi-0-90-0-woSF-V2.DAT
p8
sS'age'
p9
I28
sS'derived_data_available'
p10
I01
sS'ccs'
p11
g0
(cmatresdev.db.matdb.trc.composite_cross_section
CompositeCrossSection
p12
tp13
Rp14
(dp15
S'concrete_mixture_key'
p16
S'FIL-Standard-SF'
p17
sg5
g6
sS'key'
p18
S''
p19
sS'fabric_layup_list'
p20
ccopy_reg
_reconstructor
p21
(ctraits.trait_handlers
TraitListObject
p22
c__builtin__
list
p23
(lp24
g0
(cmatresdev.db.matdb.trc.fabric_layup
FabricLayUp
p25
tp26
Rp27
(dp28
g5
g6
sS'fabric_layout_key'
p29
S'MAG-07-03'
p30
sS's_tex_z'
p31
F0.0033333333333333331
sS'n_layers'
p32
I3
sg18
g19
sS'orientation_fn_key'
p33
S'90_0'
p34
sbatp35
Rp36
(dp37
S'name_items'
p38
S'fabric_layup_list_items'
p39
sS'object'
p40
g14
sS'name'
p41
g20
sbsbsS'width'
p42
F0.059999999999999998
sS'gauge_length'
p43
F0.20000000000000001
sS'loading_rate'
p44
F1.0
sS'n_smooth_window_fraction'
p45
F0.10000000000000001
sb.