ctraits.traits
__newobj__
p0
(cquaducom.devproc.tensile_test.dog_bone.exp_tt_db
ExpTTDB
p1
tp2
Rp3
(dp4
S'__traits_version__'
p5
S'3.2.0'
p6
sS'data_file'
p7
V/home/alexander/simdb/exdata/tensile_tests/ZiE_2011-05-26_TT-4c-2cm-0/40min/TT-4c-2cm-40min-w.DAT
p8
sS'age'
p9
I28
sS'derived_data_available'
p10
I00
sS'ccs'
p11
g0
(cmatresdev.db.matdb.trc.composite_cross_section
CompositeCrossSection
p12
tp13
Rp14
(dp15
S'concrete_mixture_key'
p16
S'FIL-10-09'
p17
sg5
g6
sS'key'
p18
S''
p19
sS'fabric_layup_list'
p20
ccopy_reg
_reconstructor
p21
(ctraits.trait_handlers
TraitListObject
p22
c__builtin__
list
p23
(lp24
g0
(cmatresdev.db.matdb.trc.fabric_layup
FabricLayUp
p25
tp26
Rp27
(dp28
g5
g6
sS'fabric_layout_key'
p29
S'unreinforced'
p30
sS's_tex_z'
p31
F0.0021999999999999997
sS'n_layers'
p32
I1
sg18
g19
sS'orientation_fn_key'
p33
g30
sbag0
(g25
tp34
Rp35
(dp36
g5
g6
sg29
S'2D-04-11'
p37
sg31
F0.0043999999999999994
sg32
I4
sg18
g19
sg33
S'all0'
p38
sbag0
(g25
tp39
Rp40
(dp41
g5
g6
sg29
g30
sg31
F0.0021999999999999997
sg32
I1
sg18
g19
sg33
g30
sbatp42
Rp43
(dp44
S'name_items'
p45
S'fabric_layup_list_items'
p46
sS'object'
p47
g14
sS'name'
p48
g20
sbsbsS'width'
p49
F0.10000000000000001
sS'gauge_length'
p50
F0.45000000000000001
sS'loading_rate'
p51
F2.0
sS'n_smooth_window_fraction'
p52
F0.10000000000000001
sb.