ctraits.traits
__newobj__
p0
(cquaducom.devproc.tensile_test.dog_bone.exp_tt_db
ExpTTDB
p1
tp2
Rp3
(dp4
S'__traits_version__'
p5
S'3.2.0'
p6
sS'data_file'
p7
V/home/alexander/simdb/exdata/tensile_tests/dog_bone/2010-12-07_TT-3g-1cm-a-FR_ibac/with_short_fibres/TT-3g-2cm-0-90-0-FR-wSF-ibac-V1.DAT
p8
sS'age'
p9
I28
sS'derived_data_available'
p10
I01
sS'ccs'
p11
g0
(cmatresdev.db.matdb.trc.composite_cross_section
CompositeCrossSection
p12
tp13
Rp14
(dp15
S'concrete_mixture_key'
p16
S'FIL-Standard-SF'
p17
sg5
g6
sS'key'
p18
S''
p19
sS'fabric_layup_list'
p20
ccopy_reg
_reconstructor
p21
(ctraits.trait_handlers
TraitListObject
p22
c__builtin__
list
p23
(lp24
g0
(cmatresdev.db.matdb.trc.fabric_layup
FabricLayUp
p25
tp26
Rp27
(dp28
g5
g6
sS'fabric_layout_key'
p29
S'unreinforced'
p30
sS's_tex_z'
p31
F0.00125
sS'n_layers'
p32
I1
sg18
g19
sS'orientation_fn_key'
p33
g30
sbag0
(g25
tp34
Rp35
(dp36
g5
g6
sg29
S'MAG-07-03'
p37
sg31
F0.0025000000000000001
sg32
I3
sg18
g19
sg33
S'90_0'
p38
sbag0
(g25
tp39
Rp40
(dp41
g5
g6
sg29
g30
sg31
F0.00125
sg32
I1
sg18
g19
sg33
g30
sbatp42
Rp43
(dp44
S'name_items'
p45
S'fabric_layup_list_items'
p46
sS'object'
p47
g14
sS'name'
p48
g20
sbsbsS'width'
p49
F0.059999999999999998
sS'gauge_length'
p50
F0.20000000000000001
sS'loading_rate'
p51
F3.0
sS'file_ext'
p52
S'DAT'
p53
sS'n_smooth_window_fraction'
p54
F0.10000000000000001
sb.