ctraits.traits
__newobj__
p0
(cquaducom.devproc.tensile_test.dog_bone.exp_tt_db
ExpTTDB
p1
tp2
Rp3
(dp4
S'__traits_version__'
p5
S'3.3.1.dev-r0'
p6
sS'n_poly'
p7
I12
sS'derived_data'
p8
I01
sS'jump_atol'
p9
F0.0
sS'jump_rtol'
p10
F0.029999999999999999
sS'data_file'
p11
V/home/rch/simdb/exdata/tensile_tests/TT-9a/TT09-9a-V3.DAT
p12
sS'age'
p13
I15
sS'ccs'
p14
g0
(cmatresdev.db.matdb.trc.composite_cross_section
CompositeCrossSection
p15
tp16
Rp17
(dp18
S'concrete_mixture_key'
p19
S'PZ-0708-1'
p20
sg5
g6
sS'key'
p21
S''
p22
sS'fabric_layup_list'
p23
ccopy_reg
_reconstructor
p24
(ctraits.trait_handlers
TraitListObject
p25
c__builtin__
list
p26
(lp27
g0
(cmatresdev.db.matdb.trc.fabric_layup
FabricLayUp
p28
tp29
Rp30
(dp31
g5
g6
sS'fabric_layout_key'
p32
S'unreinforced'
p33
sS's_tex_z'
p34
F0.0015
sS'n_layers'
p35
I1
sg21
g22
sS'orientation_fn_key'
p36
g33
sbag0
(g28
tp37
Rp38
(dp39
g5
g6
sg32
S'MAG-07-03'
p40
sg34
F0.0030000000000000001
sg35
I9
sg21
g22
sg36
S'90_0'
p41
sbag0
(g28
tp42
Rp43
(dp44
g5
g6
sg32
g33
sg34
F0.0015
sg35
I1
sg21
g22
sg36
g33
sbatp45
Rp46
(dp47
S'name_items'
p48
S'fabric_layup_list_items'
p49
sS'object'
p50
g17
sS'name'
p51
g23
sbsbsS'width'
p52
F0.10000000000000001
sS'gauge_length'
p53
F0.45000000000000001
sS'loading_rate'
p54
F1.0
sS'n_fit_points'
p55
I100
sS'eps_c_max'
p56
cnumpy.core.multiarray
scalar
p57
(cnumpy
dtype
p58
(S'f8'
p59
I0
I1
tp60
Rp61
(I3
S'<'
p62
NNNI-1
I-1
I0
tp63
bS'\xc9;\xba\x9f\xd6\x02w?'
p64
tp65
Rp66
sS'n_fit_window_fraction'
p67
F0.10000000000000001
sb.