ctraits.traits
__newobj__
p0
(cquaducom.devproc.tensile_test.dog_bone.exp_tt_db
ExpTTDB
p1
tp2
Rp3
(dp4
S'__traits_version__'
p5
S'3.2.0'
p6
sS'n_poly'
p7
I12
sS'derived_data'
p8
I01
sS'jump_atol'
p9
F0.0
sS'jump_rtol'
p10
F0.029999999999999999
sS'data_file'
p11
S'/home/alexander/simdb/exdata/tensile_tests/TT-10a/TT11-10a-V1.DAT'
p12
sS'age'
p13
I28
sS'derived_data_available'
p14
I01
sS'ccs'
p15
g0
(cmatresdev.db.matdb.trc.composite_cross_section
CompositeCrossSection
p16
tp17
Rp18
(dp19
S'concrete_mixture_key'
p20
S'FIL-10-09'
p21
sg5
g6
sS'key'
p22
S''
p23
sS'fabric_layup_list'
p24
ccopy_reg
_reconstructor
p25
(ctraits.trait_handlers
TraitListObject
p26
c__builtin__
list
p27
(lp28
g0
(cmatresdev.db.matdb.trc.fabric_layup
FabricLayUp
p29
tp30
Rp31
(dp32
g5
g6
sS'fabric_layout_key'
p33
S'unreinforced'
p34
sS's_tex_z'
p35
F0.0013600000000000001
sS'n_layers'
p36
I1
sg22
g23
sS'orientation_fn_key'
p37
g34
sbag0
(g29
tp38
Rp39
(dp40
g5
g6
sg33
S'2D-02-06a'
p41
sg35
F0.0027299999999999998
sg36
I10
sg22
g23
sg37
S'90_0'
p42
sbag0
(g29
tp43
Rp44
(dp45
g5
g6
sg33
g34
sg35
F0.0013600000000000001
sg36
I1
sg22
g23
sg37
g34
sbatp46
Rp47
(dp48
S'name_items'
p49
S'fabric_layup_list_items'
p50
sS'object'
p51
g18
sS'name'
p52
g24
sbsbsS'width'
p53
F0.10000000000000001
sS'gauge_length'
p54
F0.45000000000000001
sS'loading_rate'
p55
F1.0
sS'n_smooth_window_fraction'
p56
F0.10000000000000001
sS'n_fit_points'
p57
I100
sS'eps_c_max'
p58
cnumpy.core.multiarray
scalar
p59
(cnumpy
dtype
p60
(S'f8'
p61
I0
I1
tp62
Rp63
(I3
S'<'
p64
NNNI-1
I-1
I0
tp65
bS'\xe2q\x048*c\x83?'
p66
tp67
Rp68
sS'n_fit_window_fraction'
p69
F0.10000000000000001
sb.