ctraits.traits
__newobj__
p0
(cquaducom.devproc.tensile_test.dog_bone.exp_tt_db
ExpTTDB
p1
tp2
Rp3
(dp4
S'__traits_version__'
p5
S'4.0.0'
p6
sS'data_file'
p7
V/home/alexander/simdb/exdata/tensile_tests/dog_bone/2010-12-13_TT-3c3C-3cm-0-TR_CR/TT-3c3C-3cm-0-CR-V1.DAT
p8
sS'age'
p9
I38
sS'derived_data_available'
p10
I01
sS'ccs'
p11
g0
(cmatresdev.db.matdb.trc.composite_cross_section
CompositeCrossSection
p12
tp13
Rp14
(dp15
S'concrete_mixture_key'
p16
S'FIL-10-09'
p17
sg5
g6
sS'key'
p18
S''
p19
sS'fabric_layup_list'
p20
ccopy_reg
_reconstructor
p21
(ctraits.trait_handlers
TraitListObject
p22
c__builtin__
list
p23
(lp24
g0
(cmatresdev.db.matdb.trc.fabric_layup
FabricLayUp
p25
tp26
Rp27
(dp28
g5
g6
sS'fabric_layout_key'
p29
S'unreinforced'
p30
sS's_tex_z'
p31
F0.002142857142857143
sS'n_layers'
p32
I1
sg18
g19
sS'orientation_fn_key'
p33
g30
sbag0
(g25
tp34
Rp35
(dp36
g5
g6
sg29
S'2D-14-10'
p37
sg31
F0.004285714285714286
sg32
I1
sg18
g19
sg33
S'all0'
p38
sbag0
(g25
tp39
Rp40
(dp41
g5
g6
sg29
S'C-Grid-C50'
p42
sg31
F0.004285714285714286
sg32
I1
sg18
g19
sg33
g38
sbag0
(g25
tp43
Rp44
(dp45
g5
g6
sg29
g37
sg31
F0.004285714285714286
sg32
I1
sg18
g19
sg33
g38
sbag0
(g25
tp46
Rp47
(dp48
g5
g6
sg29
g42
sg31
F0.004285714285714286
sg32
I1
sg18
g19
sg33
g38
sbag0
(g25
tp49
Rp50
(dp51
g5
g6
sg29
g37
sg31
F0.004285714285714286
sg32
I1
sg18
g19
sg33
g38
sbag0
(g25
tp52
Rp53
(dp54
g5
g6
sg29
g42
sg31
F0.004285714285714286
sg32
I1
sg18
g19
sg33
g38
sbag0
(g25
tp55
Rp56
(dp57
g5
g6
sg29
g30
sg31
F0.002142857142857143
sg32
I1
sg18
g19
sg33
g30
sbatp58
Rp59
(dp60
S'name_items'
p61
S'fabric_layup_list_items'
p62
sS'name'
p63
g20
sbsbsS'width'
p64
F0.1
sS'gauge_length'
p65
F0.45
sS'loading_rate'
p66
F1.0
sS'file_ext'
p67
S'DAT'
p68
sS'n_smooth_window_fraction'
p69
F0.1
sb.